target datalayout = "e-m:e-p270:32:32-p271:32:32-p272:64:64-i64:64-i128:128-f80:128-n8:16:32:64-S128"
target triple = "x86_64-pc-linux-gnu"

%"struct.url::Parsed" = type { %"struct.url::Component", %"struct.url::Component", %"struct.url::Component", %"struct.url::Component", %"struct.url::Component", %"struct.url::Component", %"struct.url::Component", %"struct.url::Component", ptr }
%"struct.url::Component" = type { i32, i32 }

; Function Attrs: mustprogress nounwind uwtable
define linkonce_odr void @_ZN3url9ComponentC2Ev(ptr noundef nonnull align 4 dereferenceable(8) %0) unnamed_addr #1 comdat align 2 {
  %2 = alloca ptr, align 8
  store ptr %0, ptr %2, align 8, !tbaa !12
  %3 = load ptr, ptr %2, align 8
  %4 = getelementptr inbounds nuw %"struct.url::Component", ptr %3, i32 0, i32 0
  store i32 0, ptr %4, align 4, !tbaa !14
  %5 = getelementptr inbounds nuw %"struct.url::Component", ptr %3, i32 0, i32 1
  store i32 -1, ptr %5, align 4, !tbaa !15
  ret void
}

; Function Attrs: mustprogress uwtable
define void @_ZN3url6ParsedC2Ev(ptr noundef nonnull align 8 dereferenceable(72) %0) unnamed_addr #0 align 2 {
  %2 = alloca ptr, align 8
  store ptr %0, ptr %2, align 8, !tbaa !3
  %3 = load ptr, ptr %2, align 8
  %4 = getelementptr inbounds nuw %"struct.url::Parsed", ptr %3, i32 0, i32 0
  call void @_ZN3url9ComponentC2Ev(ptr noundef nonnull align 4 dereferenceable(8) %4)
  %5 = getelementptr inbounds nuw %"struct.url::Parsed", ptr %3, i32 0, i32 1
  call void @_ZN3url9ComponentC2Ev(ptr noundef nonnull align 4 dereferenceable(8) %5)
  %6 = getelementptr inbounds nuw %"struct.url::Parsed", ptr %3, i32 0, i32 2
  call void @_ZN3url9ComponentC2Ev(ptr noundef nonnull align 4 dereferenceable(8) %6)
  %7 = getelementptr inbounds nuw %"struct.url::Parsed", ptr %3, i32 0, i32 3
  call void @_ZN3url9ComponentC2Ev(ptr noundef nonnull align 4 dereferenceable(8) %7)
  %8 = getelementptr inbounds nuw %"struct.url::Parsed", ptr %3, i32 0, i32 4
  call void @_ZN3url9ComponentC2Ev(ptr noundef nonnull align 4 dereferenceable(8) %8)
  %9 = getelementptr inbounds nuw %"struct.url::Parsed", ptr %3, i32 0, i32 5
  call void @_ZN3url9ComponentC2Ev(ptr noundef nonnull align 4 dereferenceable(8) %9)
  %10 = getelementptr inbounds nuw %"struct.url::Parsed", ptr %3, i32 0, i32 6
  call void @_ZN3url9ComponentC2Ev(ptr noundef nonnull align 4 dereferenceable(8) %10)
  %11 = getelementptr inbounds nuw %"struct.url::Parsed", ptr %3, i32 0, i32 7
  call void @_ZN3url9ComponentC2Ev(ptr noundef nonnull align 4 dereferenceable(8) %11)
  %12 = getelementptr inbounds nuw %"struct.url::Parsed", ptr %3, i32 0, i32 8
  store ptr null, ptr %12, align 8, !tbaa !8
  ret void
}