; Function Attrs: mustprogress nofree norecurse nosync nounwind willreturn memory(argmem: write) uwtable
define void @_ZN3url6ParsedC2Ev(ptr noundef nonnull writeonly align 8 captures(none) dereferenceable(72) initializes((0, 72)) %0) unnamed_addr #0 align 2 {
  store i32 0, ptr %0, align 8, !tbaa !3
  %2 = getelementptr inbounds nuw i8, ptr %0, i64 4
  store i32 -1, ptr %2, align 4, !tbaa !8
  %3 = getelementptr inbounds nuw i8, ptr %0, i64 8
  store i32 0, ptr %3, align 8, !tbaa !3
  %4 = getelementptr inbounds nuw i8, ptr %0, i64 12
  store i32 -1, ptr %4, align 4, !tbaa !8
  %5 = getelementptr inbounds nuw i8, ptr %0, i64 16
  store i32 0, ptr %5, align 8, !tbaa !3
  %6 = getelementptr inbounds nuw i8, ptr %0, i64 20
  store i32 -1, ptr %6, align 4, !tbaa !8
  %7 = getelementptr inbounds nuw i8, ptr %0, i64 24
  store i32 0, ptr %7, align 8, !tbaa !3
  %8 = getelementptr inbounds nuw i8, ptr %0, i64 28
  store i32 -1, ptr %8, align 4, !tbaa !8
  %9 = getelementptr inbounds nuw i8, ptr %0, i64 32
  store i32 0, ptr %9, align 8, !tbaa !3
  %10 = getelementptr inbounds nuw i8, ptr %0, i64 36
  store i32 -1, ptr %10, align 4, !tbaa !8
  %11 = getelementptr inbounds nuw i8, ptr %0, i64 40
  store i32 0, ptr %11, align 8, !tbaa !3
  %12 = getelementptr inbounds nuw i8, ptr %0, i64 44
  store i32 -1, ptr %12, align 4, !tbaa !8
  %13 = getelementptr inbounds nuw i8, ptr %0, i64 48
  store i32 0, ptr %13, align 8, !tbaa !3
  %14 = getelementptr inbounds nuw i8, ptr %0, i64 52
  store i32 -1, ptr %14, align 4, !tbaa !8
  %15 = getelementptr inbounds nuw i8, ptr %0, i64 56
  store i32 0, ptr %15, align 8, !tbaa !3
  %16 = getelementptr inbounds nuw i8, ptr %0, i64 60
  store i32 -1, ptr %16, align 4, !tbaa !8
  %17 = getelementptr inbounds nuw i8, ptr %0, i64 64
  store ptr null, ptr %17, align 8, !tbaa !9
  ret void
}